; Function Attrs: nounwind uwtable
define noalias nonnull ptr @l_Lean_Elab_Term_expandMatchAltsWhereDecls_loop___lambda__2(ptr noundef %0, ptr noundef %1, ptr noundef readonly captures(none) %2, ptr noundef %3) local_unnamed_addr #1 {
  %5 = tail call zeroext i8 @l_Lean_Syntax_isNone(ptr noundef %0) #6
  %6 = icmp eq i8 %5, 0
  br i1 %6, label %7, label %20

7:                                                ; preds = %4
  %8 = tail call zeroext i8 @l_Lean_Syntax_isNone(ptr noundef %0) #6
  %9 = icmp eq i8 %8, 0
  br i1 %9, label %10, label %13

10:                                               ; preds = %7
  %11 = tail call ptr @l_Lean_Syntax_getArg(ptr noundef %0, ptr noundef nonnull inttoptr (i64 1 to ptr)) #6
  %12 = tail call ptr @l_Lean_Elab_Term_expandWhereDecls(ptr noundef %11, ptr noundef %1, ptr noundef readonly %2, ptr noundef %3)
  br label %l_Lean_Elab_Term_expandWhereDeclsOpt.exit

13:                                               ; preds = %7
  tail call void @lean_inc_heartbeat() #6
  %14 = tail call noalias ptr @mi_malloc_small(i64 noundef 24) #6
  %15 = icmp eq ptr %14, null
  br i1 %15, label %16, label %lean_alloc_ctor.exit.i

16:                                               ; preds = %13
  tail call void @lean_internal_panic_out_of_memory() #7
  unreachable

lean_alloc_ctor.exit.i:                           ; preds = %13
  %17 = getelementptr inbounds nuw i8, ptr %14, i64 4
  store i32 1, ptr %14, align 4, !tbaa !8
  store i32 131096, ptr %17, align 4
  %18 = getelementptr inbounds nuw i8, ptr %14, i64 8
  store ptr %1, ptr %18, align 8, !tbaa !4
  %19 = getelementptr inbounds nuw i8, ptr %14, i64 16
  store ptr %3, ptr %19, align 8, !tbaa !4
  br label %l_Lean_Elab_Term_expandWhereDeclsOpt.exit

20:                                               ; preds = %4
  tail call void @lean_inc_heartbeat() #6
  %21 = tail call noalias ptr @mi_malloc_small(i64 noundef 24) #6
  %22 = icmp eq ptr %21, null
  br i1 %22, label %23, label %lean_alloc_ctor.exit

23:                                               ; preds = %20
  tail call void @lean_internal_panic_out_of_memory() #7
  unreachable

lean_alloc_ctor.exit:                             ; preds = %20
  %24 = getelementptr inbounds nuw i8, ptr %21, i64 4
  store i32 1, ptr %21, align 4, !tbaa !8
  store i32 131096, ptr %24, align 4
  %25 = getelementptr inbounds nuw i8, ptr %21, i64 8
  store ptr %1, ptr %25, align 8, !tbaa !4
  %26 = getelementptr inbounds nuw i8, ptr %21, i64 16
  store ptr %3, ptr %26, align 8, !tbaa !4
  br label %l_Lean_Elab_Term_expandWhereDeclsOpt.exit

l_Lean_Elab_Term_expandWhereDeclsOpt.exit:        ; preds = %lean_alloc_ctor.exit.i, %10, %lean_alloc_ctor.exit
  %.0 = phi ptr [ %21, %lean_alloc_ctor.exit ], [ %12, %10 ], [ %14, %lean_alloc_ctor.exit.i ]
  ret ptr %.0
}